target datalayout = "e-m:e-p270:32:32-p271:32:32-p272:64:64-i64:64-i128:128-f80:128-n8:16:32:64-S128"
target triple = "x86_64-pc-linux-gnu"

%struct.DdManager = type { %struct.DdNode, ptr, ptr, ptr, ptr, ptr, ptr, ptr, i32, i32, double, double, double, i32, i32, i32, i32, i32, i32, ptr, ptr, %struct.DdSubtable, i32, i32, i32, i32, i32, i32, i32, double, i32, i32, i32, ptr, i64, double, i32, ptr, ptr, ptr, ptr, ptr, ptr, ptr, i32, ptr, ptr, ptr, ptr, ptr, ptr, i32, i32, i32, double, i32, i32, i32, i32, double, double, i32, i32, i32, i32, i32, i32, i32, i32, i32, ptr, ptr, i32, i32, i32, i32, i32, i32, ptr, ptr, ptr, ptr, ptr, ptr, ptr, ptr, i32, i64, i64, i64, i32, i64, i64, double, double, double, double, double, double, i32, ptr, ptr, i64 }
%struct.DdNode = type { i32, i32, ptr, %union.anon, i64 }
%union.anon = type { %struct.DdChildren }
%struct.DdChildren = type { ptr, ptr }
%struct.DdSubtable = type { ptr, i32, i32, i32, i32, i32, i32, i32, i32, i32, i32, i32 }
%struct.DdGen = type { ptr, i32, i32, %union.anon.0, %struct.anon.3, ptr }
%union.anon.0 = type { %struct.anon }
%struct.anon = type { ptr, double }
%struct.anon.3 = type { i32, ptr }

; Function Attrs: nounwind uwtable
define i32 @Cudd_NextCube(ptr noundef %0, ptr noundef %1, ptr noundef %2) #0 {
  %4 = alloca i32, align 4
  %5 = alloca ptr, align 8
  %6 = alloca ptr, align 8
  %7 = alloca ptr, align 8
  %8 = alloca ptr, align 8
  %9 = alloca ptr, align 8
  %10 = alloca ptr, align 8
  %11 = alloca ptr, align 8
  %12 = alloca ptr, align 8
  %13 = alloca ptr, align 8
  %14 = alloca ptr, align 8
  store ptr %0, ptr %5, align 8
  store ptr %1, ptr %6, align 8
  store ptr %2, ptr %7, align 8
  %15 = load ptr, ptr %5, align 8
  %16 = getelementptr inbounds %struct.DdGen, ptr %15, i32 0, i32 0
  %17 = load ptr, ptr %16, align 8
  store ptr %17, ptr %14, align 8
  br label %18

18:                                               ; preds = %105, %3
  %19 = load ptr, ptr %5, align 8
  %20 = getelementptr inbounds %struct.DdGen, ptr %19, i32 0, i32 4
  %21 = getelementptr inbounds %struct.anon.3, ptr %20, i32 0, i32 0
  %22 = load i32, ptr %21, align 8
  %23 = icmp eq i32 %22, 1
  br i1 %23, label %24, label %32

24:                                               ; preds = %18
  %25 = load ptr, ptr %5, align 8
  %26 = getelementptr inbounds %struct.DdGen, ptr %25, i32 0, i32 2
  store i32 0, ptr %26, align 4
  %27 = load ptr, ptr %5, align 8
  %28 = getelementptr inbounds %struct.DdGen, ptr %27, i32 0, i32 4
  %29 = getelementptr inbounds %struct.anon.3, ptr %28, i32 0, i32 0
  %30 = load i32, ptr %29, align 8
  %31 = add nsw i32 %30, -1
  store i32 %31, ptr %29, align 8
  br label %311

32:                                               ; preds = %18
  %33 = load ptr, ptr %5, align 8
  %34 = getelementptr inbounds %struct.DdGen, ptr %33, i32 0, i32 4
  %35 = getelementptr inbounds %struct.anon.3, ptr %34, i32 0, i32 1
  %36 = load ptr, ptr %35, align 8
  %37 = load ptr, ptr %5, align 8
  %38 = getelementptr inbounds %struct.DdGen, ptr %37, i32 0, i32 4
  %39 = getelementptr inbounds %struct.anon.3, ptr %38, i32 0, i32 0
  %40 = load i32, ptr %39, align 8
  %41 = sub nsw i32 %40, 1
  %42 = sext i32 %41 to i64
  %43 = getelementptr inbounds ptr, ptr %36, i64 %42
  %44 = load ptr, ptr %43, align 8
  store ptr %44, ptr %8, align 8
  %45 = load ptr, ptr %8, align 8
  %46 = ptrtoint ptr %45 to i64
  %47 = and i64 %46, -2
  %48 = inttoptr i64 %47 to ptr
  store ptr %48, ptr %9, align 8
  %49 = load ptr, ptr %5, align 8
  %50 = getelementptr inbounds %struct.DdGen, ptr %49, i32 0, i32 4
  %51 = getelementptr inbounds %struct.anon.3, ptr %50, i32 0, i32 1
  %52 = load ptr, ptr %51, align 8
  %53 = load ptr, ptr %5, align 8
  %54 = getelementptr inbounds %struct.DdGen, ptr %53, i32 0, i32 4
  %55 = getelementptr inbounds %struct.anon.3, ptr %54, i32 0, i32 0
  %56 = load i32, ptr %55, align 8
  %57 = sub nsw i32 %56, 2
  %58 = sext i32 %57 to i64
  %59 = getelementptr inbounds ptr, ptr %52, i64 %58
  %60 = load ptr, ptr %59, align 8
  store ptr %60, ptr %12, align 8
  %61 = load ptr, ptr %12, align 8
  %62 = ptrtoint ptr %61 to i64
  %63 = and i64 %62, -2
  %64 = inttoptr i64 %63 to ptr
  store ptr %64, ptr %13, align 8
  %65 = load ptr, ptr %13, align 8
  %66 = getelementptr inbounds %struct.DdNode, ptr %65, i32 0, i32 3
  %67 = getelementptr inbounds %struct.DdChildren, ptr %66, i32 0, i32 0
  %68 = load ptr, ptr %67, align 8
  store ptr %68, ptr %11, align 8
  %69 = load ptr, ptr %12, align 8
  %70 = load ptr, ptr %13, align 8
  %71 = icmp ne ptr %69, %70
  br i1 %71, label %72, label %77

72:                                               ; preds = %32
  %73 = load ptr, ptr %11, align 8
  %74 = ptrtoint ptr %73 to i64
  %75 = xor i64 %74, 1
  %76 = inttoptr i64 %75 to ptr
  store ptr %76, ptr %10, align 8
  br label %79

77:                                               ; preds = %32
  %78 = load ptr, ptr %11, align 8
  store ptr %78, ptr %10, align 8
  br label %79

79:                                               ; preds = %77, %72
  %80 = load ptr, ptr %10, align 8
  %81 = load ptr, ptr %8, align 8
  %82 = icmp ne ptr %80, %81
  br i1 %82, label %83, label %105

83:                                               ; preds = %79
  %84 = load ptr, ptr %5, align 8
  %85 = getelementptr inbounds %struct.DdGen, ptr %84, i32 0, i32 3
  %86 = getelementptr inbounds %struct.anon, ptr %85, i32 0, i32 0
  %87 = load ptr, ptr %86, align 8
  %88 = load ptr, ptr %13, align 8
  %89 = getelementptr inbounds %struct.DdNode, ptr %88, i32 0, i32 0
  %90 = load i32, ptr %89, align 8
  %91 = zext i32 %90 to i64
  %92 = getelementptr inbounds i32, ptr %87, i64 %91
  store i32 1, ptr %92, align 4
  %93 = load ptr, ptr %10, align 8
  %94 = load ptr, ptr %5, align 8
  %95 = getelementptr inbounds %struct.DdGen, ptr %94, i32 0, i32 4
  %96 = getelementptr inbounds %struct.anon.3, ptr %95, i32 0, i32 1
  %97 = load ptr, ptr %96, align 8
  %98 = load ptr, ptr %5, align 8
  %99 = getelementptr inbounds %struct.DdGen, ptr %98, i32 0, i32 4
  %100 = getelementptr inbounds %struct.anon.3, ptr %99, i32 0, i32 0
  %101 = load i32, ptr %100, align 8
  %102 = sub nsw i32 %101, 1
  %103 = sext i32 %102 to i64
  %104 = getelementptr inbounds ptr, ptr %97, i64 %103
  store ptr %93, ptr %104, align 8
  br label %120

105:                                              ; preds = %79
  %106 = load ptr, ptr %5, align 8
  %107 = getelementptr inbounds %struct.DdGen, ptr %106, i32 0, i32 3
  %108 = getelementptr inbounds %struct.anon, ptr %107, i32 0, i32 0
  %109 = load ptr, ptr %108, align 8
  %110 = load ptr, ptr %13, align 8
  %111 = getelementptr inbounds %struct.DdNode, ptr %110, i32 0, i32 0
  %112 = load i32, ptr %111, align 8
  %113 = zext i32 %112 to i64
  %114 = getelementptr inbounds i32, ptr %109, i64 %113
  store i32 2, ptr %114, align 4
  %115 = load ptr, ptr %5, align 8
  %116 = getelementptr inbounds %struct.DdGen, ptr %115, i32 0, i32 4
  %117 = getelementptr inbounds %struct.anon.3, ptr %116, i32 0, i32 0
  %118 = load i32, ptr %117, align 8
  %119 = add nsw i32 %118, -1
  store i32 %119, ptr %117, align 8
  br label %18

120:                                              ; preds = %83
  br label %121

121:                                              ; preds = %310, %120
  %122 = load ptr, ptr %5, align 8
  %123 = getelementptr inbounds %struct.DdGen, ptr %122, i32 0, i32 4
  %124 = getelementptr inbounds %struct.anon.3, ptr %123, i32 0, i32 1
  %125 = load ptr, ptr %124, align 8
  %126 = load ptr, ptr %5, align 8
  %127 = getelementptr inbounds %struct.DdGen, ptr %126, i32 0, i32 4
  %128 = getelementptr inbounds %struct.anon.3, ptr %127, i32 0, i32 0
  %129 = load i32, ptr %128, align 8
  %130 = sub nsw i32 %129, 1
  %131 = sext i32 %130 to i64
  %132 = getelementptr inbounds ptr, ptr %125, i64 %131
  %133 = load ptr, ptr %132, align 8
  store ptr %133, ptr %8, align 8
  %134 = load ptr, ptr %8, align 8
  %135 = ptrtoint ptr %134 to i64
  %136 = and i64 %135, -2
  %137 = inttoptr i64 %136 to ptr
  store ptr %137, ptr %9, align 8
  %138 = load ptr, ptr %9, align 8
  %139 = getelementptr inbounds %struct.DdNode, ptr %138, i32 0, i32 0
  %140 = load i32, ptr %139, align 8
  %141 = icmp eq i32 %140, 2147483647
  br i1 %141, label %181, label %142

142:                                              ; preds = %121
  %143 = load ptr, ptr %5, align 8
  %144 = getelementptr inbounds %struct.DdGen, ptr %143, i32 0, i32 3
  %145 = getelementptr inbounds %struct.anon, ptr %144, i32 0, i32 0
  %146 = load ptr, ptr %145, align 8
  %147 = load ptr, ptr %9, align 8
  %148 = getelementptr inbounds %struct.DdNode, ptr %147, i32 0, i32 0
  %149 = load i32, ptr %148, align 8
  %150 = zext i32 %149 to i64
  %151 = getelementptr inbounds i32, ptr %146, i64 %150
  store i32 0, ptr %151, align 4
  %152 = load ptr, ptr %9, align 8
  %153 = getelementptr inbounds %struct.DdNode, ptr %152, i32 0, i32 3
  %154 = getelementptr inbounds %struct.DdChildren, ptr %153, i32 0, i32 1
  %155 = load ptr, ptr %154, align 8
  store ptr %155, ptr %10, align 8
  %156 = load ptr, ptr %8, align 8
  %157 = load ptr, ptr %9, align 8
  %158 = icmp ne ptr %156, %157
  br i1 %158, label %159, label %164

159:                                              ; preds = %142
  %160 = load ptr, ptr %10, align 8
  %161 = ptrtoint ptr %160 to i64
  %162 = xor i64 %161, 1
  %163 = inttoptr i64 %162 to ptr
  store ptr %163, ptr %10, align 8
  br label %164

164:                                              ; preds = %159, %142
  %165 = load ptr, ptr %10, align 8
  %166 = load ptr, ptr %5, align 8
  %167 = getelementptr inbounds %struct.DdGen, ptr %166, i32 0, i32 4
  %168 = getelementptr inbounds %struct.anon.3, ptr %167, i32 0, i32 1
  %169 = load ptr, ptr %168, align 8
  %170 = load ptr, ptr %5, align 8
  %171 = getelementptr inbounds %struct.DdGen, ptr %170, i32 0, i32 4
  %172 = getelementptr inbounds %struct.anon.3, ptr %171, i32 0, i32 0
  %173 = load i32, ptr %172, align 8
  %174 = sext i32 %173 to i64
  %175 = getelementptr inbounds ptr, ptr %169, i64 %174
  store ptr %165, ptr %175, align 8
  %176 = load ptr, ptr %5, align 8
  %177 = getelementptr inbounds %struct.DdGen, ptr %176, i32 0, i32 4
  %178 = getelementptr inbounds %struct.anon.3, ptr %177, i32 0, i32 0
  %179 = load i32, ptr %178, align 8
  %180 = add nsw i32 %179, 1
  store i32 %180, ptr %178, align 8
  br label %310

181:                                              ; preds = %121
  %182 = load ptr, ptr %8, align 8
  %183 = load ptr, ptr %14, align 8
  %184 = getelementptr inbounds %struct.DdManager, ptr %183, i32 0, i32 1
  %185 = load ptr, ptr %184, align 8
  %186 = ptrtoint ptr %185 to i64
  %187 = xor i64 %186, 1
  %188 = inttoptr i64 %187 to ptr
  %189 = icmp eq ptr %182, %188
  br i1 %189, label %196, label %190

190:                                              ; preds = %181
  %191 = load ptr, ptr %8, align 8
  %192 = load ptr, ptr %14, align 8
  %193 = getelementptr inbounds %struct.DdManager, ptr %192, i32 0, i32 5
  %194 = load ptr, ptr %193, align 8
  %195 = icmp eq ptr %191, %194
  br i1 %195, label %196, label %300

196:                                              ; preds = %190, %181
  br label %197

197:                                              ; preds = %268, %196
  %198 = load ptr, ptr %5, align 8
  %199 = getelementptr inbounds %struct.DdGen, ptr %198, i32 0, i32 4
  %200 = getelementptr inbounds %struct.anon.3, ptr %199, i32 0, i32 0
  %201 = load i32, ptr %200, align 8
  %202 = icmp eq i32 %201, 1
  br i1 %202, label %203, label %211

203:                                              ; preds = %197
  %204 = load ptr, ptr %5, align 8
  %205 = getelementptr inbounds %struct.DdGen, ptr %204, i32 0, i32 2
  store i32 0, ptr %205, align 4
  %206 = load ptr, ptr %5, align 8
  %207 = getelementptr inbounds %struct.DdGen, ptr %206, i32 0, i32 4
  %208 = getelementptr inbounds %struct.anon.3, ptr %207, i32 0, i32 0
  %209 = load i32, ptr %208, align 8
  %210 = add nsw i32 %209, -1
  store i32 %210, ptr %208, align 8
  br label %311

211:                                              ; preds = %197
  %212 = load ptr, ptr %5, align 8
  %213 = getelementptr inbounds %struct.DdGen, ptr %212, i32 0, i32 4
  %214 = getelementptr inbounds %struct.anon.3, ptr %213, i32 0, i32 1
  %215 = load ptr, ptr %214, align 8
  %216 = load ptr, ptr %5, align 8
  %217 = getelementptr inbounds %struct.DdGen, ptr %216, i32 0, i32 4
  %218 = getelementptr inbounds %struct.anon.3, ptr %217, i32 0, i32 0
  %219 = load i32, ptr %218, align 8
  %220 = sub nsw i32 %219, 2
  %221 = sext i32 %220 to i64
  %222 = getelementptr inbounds ptr, ptr %215, i64 %221
  %223 = load ptr, ptr %222, align 8
  store ptr %223, ptr %12, align 8
  %224 = load ptr, ptr %12, align 8
  %225 = ptrtoint ptr %224 to i64
  %226 = and i64 %225, -2
  %227 = inttoptr i64 %226 to ptr
  store ptr %227, ptr %13, align 8
  %228 = load ptr, ptr %13, align 8
  %229 = getelementptr inbounds %struct.DdNode, ptr %228, i32 0, i32 3
  %230 = getelementptr inbounds %struct.DdChildren, ptr %229, i32 0, i32 0
  %231 = load ptr, ptr %230, align 8
  store ptr %231, ptr %11, align 8
  %232 = load ptr, ptr %12, align 8
  %233 = load ptr, ptr %13, align 8
  %234 = icmp ne ptr %232, %233
  br i1 %234, label %235, label %240

235:                                              ; preds = %211
  %236 = load ptr, ptr %11, align 8
  %237 = ptrtoint ptr %236 to i64
  %238 = xor i64 %237, 1
  %239 = inttoptr i64 %238 to ptr
  store ptr %239, ptr %10, align 8
  br label %242

240:                                              ; preds = %211
  %241 = load ptr, ptr %11, align 8
  store ptr %241, ptr %10, align 8
  br label %242

242:                                              ; preds = %240, %235
  %243 = load ptr, ptr %10, align 8
  %244 = load ptr, ptr %8, align 8
  %245 = icmp ne ptr %243, %244
  br i1 %245, label %246, label %268

246:                                              ; preds = %242
  %247 = load ptr, ptr %5, align 8
  %248 = getelementptr inbounds %struct.DdGen, ptr %247, i32 0, i32 3
  %249 = getelementptr inbounds %struct.anon, ptr %248, i32 0, i32 0
  %250 = load ptr, ptr %249, align 8
  %251 = load ptr, ptr %13, align 8
  %252 = getelementptr inbounds %struct.DdNode, ptr %251, i32 0, i32 0
  %253 = load i32, ptr %252, align 8
  %254 = zext i32 %253 to i64
  %255 = getelementptr inbounds i32, ptr %250, i64 %254
  store i32 1, ptr %255, align 4
  %256 = load ptr, ptr %10, align 8
  %257 = load ptr, ptr %5, align 8
  %258 = getelementptr inbounds %struct.DdGen, ptr %257, i32 0, i32 4
  %259 = getelementptr inbounds %struct.anon.3, ptr %258, i32 0, i32 1
  %260 = load ptr, ptr %259, align 8
  %261 = load ptr, ptr %5, align 8
  %262 = getelementptr inbounds %struct.DdGen, ptr %261, i32 0, i32 4
  %263 = getelementptr inbounds %struct.anon.3, ptr %262, i32 0, i32 0
  %264 = load i32, ptr %263, align 8
  %265 = sub nsw i32 %264, 1
  %266 = sext i32 %265 to i64
  %267 = getelementptr inbounds ptr, ptr %260, i64 %266
  store ptr %256, ptr %267, align 8
  br label %299

268:                                              ; preds = %242
  %269 = load ptr, ptr %5, align 8
  %270 = getelementptr inbounds %struct.DdGen, ptr %269, i32 0, i32 3
  %271 = getelementptr inbounds %struct.anon, ptr %270, i32 0, i32 0
  %272 = load ptr, ptr %271, align 8
  %273 = load ptr, ptr %13, align 8
  %274 = getelementptr inbounds %struct.DdNode, ptr %273, i32 0, i32 0
  %275 = load i32, ptr %274, align 8
  %276 = zext i32 %275 to i64
  %277 = getelementptr inbounds i32, ptr %272, i64 %276
  store i32 2, ptr %277, align 4
  %278 = load ptr, ptr %5, align 8
  %279 = getelementptr inbounds %struct.DdGen, ptr %278, i32 0, i32 4
  %280 = getelementptr inbounds %struct.anon.3, ptr %279, i32 0, i32 0
  %281 = load i32, ptr %280, align 8
  %282 = add nsw i32 %281, -1
  store i32 %282, ptr %280, align 8
  %283 = load ptr, ptr %5, align 8
  %284 = getelementptr inbounds %struct.DdGen, ptr %283, i32 0, i32 4
  %285 = getelementptr inbounds %struct.anon.3, ptr %284, i32 0, i32 1
  %286 = load ptr, ptr %285, align 8
  %287 = load ptr, ptr %5, align 8
  %288 = getelementptr inbounds %struct.DdGen, ptr %287, i32 0, i32 4
  %289 = getelementptr inbounds %struct.anon.3, ptr %288, i32 0, i32 0
  %290 = load i32, ptr %289, align 8
  %291 = sub nsw i32 %290, 1
  %292 = sext i32 %291 to i64
  %293 = getelementptr inbounds ptr, ptr %286, i64 %292
  %294 = load ptr, ptr %293, align 8
  store ptr %294, ptr %8, align 8
  %295 = load ptr, ptr %8, align 8
  %296 = ptrtoint ptr %295 to i64
  %297 = and i64 %296, -2
  %298 = inttoptr i64 %297 to ptr
  store ptr %298, ptr %9, align 8
  br label %197

299:                                              ; preds = %246
  br label %309

300:                                              ; preds = %190
  %301 = load ptr, ptr %5, align 8
  %302 = getelementptr inbounds %struct.DdGen, ptr %301, i32 0, i32 2
  store i32 1, ptr %302, align 4
  %303 = load ptr, ptr %8, align 8
  %304 = getelementptr inbounds %struct.DdNode, ptr %303, i32 0, i32 3
  %305 = load double, ptr %304, align 8
  %306 = load ptr, ptr %5, align 8
  %307 = getelementptr inbounds %struct.DdGen, ptr %306, i32 0, i32 3
  %308 = getelementptr inbounds %struct.anon, ptr %307, i32 0, i32 1
  store double %305, ptr %308, align 8
  br label %311

309:                                              ; preds = %299
  br label %310

310:                                              ; preds = %309, %164
  br label %121

311:                                              ; preds = %300, %203, %24
  %312 = load ptr, ptr %5, align 8
  %313 = getelementptr inbounds %struct.DdGen, ptr %312, i32 0, i32 2
  %314 = load i32, ptr %313, align 4
  %315 = icmp eq i32 %314, 0
  br i1 %315, label %316, label %317

316:                                              ; preds = %311
  store i32 0, ptr %4, align 4
  br label %328

317:                                              ; preds = %311
  %318 = load ptr, ptr %5, align 8
  %319 = getelementptr inbounds %struct.DdGen, ptr %318, i32 0, i32 3
  %320 = getelementptr inbounds %struct.anon, ptr %319, i32 0, i32 0
  %321 = load ptr, ptr %320, align 8
  %322 = load ptr, ptr %6, align 8
  store ptr %321, ptr %322, align 8
  %323 = load ptr, ptr %5, align 8
  %324 = getelementptr inbounds %struct.DdGen, ptr %323, i32 0, i32 3
  %325 = getelementptr inbounds %struct.anon, ptr %324, i32 0, i32 1
  %326 = load double, ptr %325, align 8
  %327 = load ptr, ptr %7, align 8
  store double %326, ptr %327, align 8
  store i32 1, ptr %4, align 4
  br label %328

328:                                              ; preds = %317, %316
  %329 = load i32, ptr %4, align 4
  ret i32 %329
}