; Function Attrs: nofree norecurse nosync nounwind memory(readwrite, inaccessiblemem: none) uwtable
define range(i32 0, 2) i32 @Cudd_NextCube(ptr noundef captures(none) %0, ptr noundef writeonly captures(none) %1, ptr noundef writeonly captures(none) %2) local_unnamed_addr #8 {
  %4 = load ptr, ptr %0, align 8
  %5 = getelementptr inbounds nuw i8, ptr %0, i64 32
  %6 = load i32, ptr %5, align 8
  %7 = icmp eq i32 %6, 1
  br i1 %7, label %._crit_edge, label %.lr.ph

.lr.ph:                                           ; preds = %3
  %8 = getelementptr inbounds nuw i8, ptr %0, i64 40
  %9 = getelementptr inbounds nuw i8, ptr %0, i64 16
  br label %11

._crit_edge:                                      ; preds = %40, %3
  %10 = getelementptr inbounds nuw i8, ptr %0, i64 12
  store i32 0, ptr %10, align 4
  store i32 0, ptr %5, align 8
  br label %.thread

11:                                               ; preds = %.lr.ph, %40
  %12 = phi i32 [ %6, %.lr.ph ], [ %42, %40 ]
  %13 = load ptr, ptr %8, align 8
  %14 = sext i32 %12 to i64
  %15 = getelementptr ptr, ptr %13, i64 %14
  %16 = getelementptr i8, ptr %15, i64 -8
  %17 = load ptr, ptr %16, align 8
  %18 = getelementptr i8, ptr %15, i64 -16
  %19 = load ptr, ptr %18, align 8
  %20 = ptrtoint ptr %19 to i64
  %21 = and i64 %20, -2
  %22 = inttoptr i64 %21 to ptr
  %23 = getelementptr inbounds nuw i8, ptr %22, i64 16
  %24 = load ptr, ptr %23, align 8
  %.not = icmp eq ptr %19, %22
  %25 = ptrtoint ptr %24 to i64
  %26 = xor i64 %25, 1
  %27 = inttoptr i64 %26 to ptr
  %.075 = select i1 %.not, ptr %24, ptr %27
  %.not81 = icmp eq ptr %.075, %17
  %28 = load ptr, ptr %9, align 8
  %29 = load i32, ptr %22, align 8
  %30 = zext i32 %29 to i64
  %31 = getelementptr inbounds nuw i32, ptr %28, i64 %30
  br i1 %.not81, label %40, label %32

32:                                               ; preds = %11
  store i32 1, ptr %31, align 4
  %33 = load ptr, ptr %8, align 8
  %34 = load i32, ptr %5, align 8
  %35 = sext i32 %34 to i64
  %36 = getelementptr ptr, ptr %33, i64 %35
  %37 = getelementptr i8, ptr %36, i64 -8
  store ptr %.075, ptr %37, align 8
  %38 = getelementptr inbounds nuw i8, ptr %4, i64 40
  %39 = getelementptr inbounds nuw i8, ptr %4, i64 72
  br label %44

40:                                               ; preds = %11
  store i32 2, ptr %31, align 4
  %41 = load i32, ptr %5, align 8
  %42 = add nsw i32 %41, -1
  store i32 %42, ptr %5, align 8
  %43 = icmp eq i32 %42, 1
  br i1 %43, label %._crit_edge, label %11

44:                                               ; preds = %.backedge, %32
  %45 = load ptr, ptr %8, align 8
  %46 = load i32, ptr %5, align 8
  %47 = sext i32 %46 to i64
  %48 = getelementptr ptr, ptr %45, i64 %47
  %49 = getelementptr i8, ptr %48, i64 -8
  %50 = load ptr, ptr %49, align 8
  %51 = ptrtoint ptr %50 to i64
  %52 = and i64 %51, -2
  %53 = inttoptr i64 %52 to ptr
  %54 = load i32, ptr %53, align 8
  %55 = icmp eq i32 %54, 2147483647
  br i1 %55, label %71, label %56

56:                                               ; preds = %44
  %57 = load ptr, ptr %9, align 8
  %58 = zext i32 %54 to i64
  %59 = getelementptr inbounds nuw i32, ptr %57, i64 %58
  store i32 0, ptr %59, align 4
  %60 = getelementptr inbounds nuw i8, ptr %53, i64 24
  %61 = load ptr, ptr %60, align 8
  %.not82 = icmp eq ptr %50, %53
  %62 = ptrtoint ptr %61 to i64
  %63 = xor i64 %62, 1
  %64 = inttoptr i64 %63 to ptr
  %.1 = select i1 %.not82, ptr %61, ptr %64
  %65 = load ptr, ptr %8, align 8
  %66 = load i32, ptr %5, align 8
  %67 = sext i32 %66 to i64
  %68 = getelementptr inbounds ptr, ptr %65, i64 %67
  store ptr %.1, ptr %68, align 8
  %69 = load i32, ptr %5, align 8
  %70 = add nsw i32 %69, 1
  store i32 %70, ptr %5, align 8
  br label %.backedge

71:                                               ; preds = %44
  %72 = load ptr, ptr %38, align 8
  %73 = ptrtoint ptr %72 to i64
  %74 = xor i64 %73, 1
  %75 = inttoptr i64 %74 to ptr
  %76 = icmp eq ptr %50, %75
  br i1 %76, label %80, label %77

77:                                               ; preds = %71
  %78 = load ptr, ptr %39, align 8
  %79 = icmp eq ptr %50, %78
  br i1 %79, label %80, label %116

80:                                               ; preds = %77, %71
  %81 = icmp eq i32 %46, 1
  br i1 %81, label %._crit_edge99, label %.lr.ph98

._crit_edge99:                                    ; preds = %80, %107
  %82 = getelementptr inbounds nuw i8, ptr %0, i64 12
  store i32 0, ptr %82, align 4
  store i32 0, ptr %5, align 8
  br label %.thread

.lr.ph98:                                         ; preds = %80, %107
  %83 = phi ptr [ %110, %107 ], [ %45, %80 ]
  %84 = phi i32 [ %109, %107 ], [ %46, %80 ]
  %.07696 = phi ptr [ %114, %107 ], [ %50, %80 ]
  %85 = sext i32 %84 to i64
  %86 = getelementptr ptr, ptr %83, i64 %85
  %87 = getelementptr i8, ptr %86, i64 -16
  %88 = load ptr, ptr %87, align 8
  %89 = ptrtoint ptr %88 to i64
  %90 = and i64 %89, -2
  %91 = inttoptr i64 %90 to ptr
  %92 = getelementptr inbounds nuw i8, ptr %91, i64 16
  %93 = load ptr, ptr %92, align 8
  %.not83 = icmp eq ptr %88, %91
  %94 = ptrtoint ptr %93 to i64
  %95 = xor i64 %94, 1
  %96 = inttoptr i64 %95 to ptr
  %.2 = select i1 %.not83, ptr %93, ptr %96
  %.not84 = icmp eq ptr %.2, %.07696
  %97 = load ptr, ptr %9, align 8
  %98 = load i32, ptr %91, align 8
  %99 = zext i32 %98 to i64
  %100 = getelementptr inbounds nuw i32, ptr %97, i64 %99
  br i1 %.not84, label %107, label %101

101:                                              ; preds = %.lr.ph98
  store i32 1, ptr %100, align 4
  %102 = load ptr, ptr %8, align 8
  %103 = load i32, ptr %5, align 8
  %104 = sext i32 %103 to i64
  %105 = getelementptr ptr, ptr %102, i64 %104
  %106 = getelementptr i8, ptr %105, i64 -8
  store ptr %.2, ptr %106, align 8
  br label %.backedge

.backedge:                                        ; preds = %101, %56
  br label %44

107:                                              ; preds = %.lr.ph98
  store i32 2, ptr %100, align 4
  %108 = load i32, ptr %5, align 8
  %109 = add nsw i32 %108, -1
  store i32 %109, ptr %5, align 8
  %110 = load ptr, ptr %8, align 8
  %111 = sext i32 %108 to i64
  %112 = getelementptr ptr, ptr %110, i64 %111
  %113 = getelementptr i8, ptr %112, i64 -16
  %114 = load ptr, ptr %113, align 8
  %115 = icmp eq i32 %109, 1
  br i1 %115, label %._crit_edge99, label %.lr.ph98

116:                                              ; preds = %77
  %117 = getelementptr inbounds nuw i8, ptr %0, i64 12
  store i32 1, ptr %117, align 4
  %118 = getelementptr inbounds nuw i8, ptr %50, i64 16
  %119 = load double, ptr %118, align 8
  %120 = getelementptr inbounds nuw i8, ptr %0, i64 24
  store double %119, ptr %120, align 8
  %121 = getelementptr inbounds nuw i8, ptr %0, i64 16
  %122 = load ptr, ptr %121, align 8
  store ptr %122, ptr %1, align 8
  %123 = getelementptr inbounds nuw i8, ptr %0, i64 24
  %124 = load double, ptr %123, align 8
  store double %124, ptr %2, align 8
  br label %.thread

.thread:                                          ; preds = %._crit_edge, %._crit_edge99, %116
  %.0 = phi i32 [ 1, %116 ], [ 0, %._crit_edge99 ], [ 0, %._crit_edge ]
  ret i32 %.0
}